target datalayout = "e-m:e-p270:32:32-p271:32:32-p272:64:64-i64:64-i128:128-f80:128-n8:16:32:64-S128"
target triple = "x86_64-pc-linux-gnu"

@H5O_init_g = external global i8, align 1
@H5_libterm_g = external global i8, align 1
@.str.1 = private unnamed_addr constant [102 x i8] c"generated/home/dtcxzyw/WorkSpace/Projects/compilers/llvm-opt-benchmark/bench/hdf5/hdf5/src/H5Olinfo.c\00", align 1
@H5E_RESOURCE_g = external global i64, align 8
@H5E_NOSPACE_g = external global i64, align 8
@.str.4 = private unnamed_addr constant [25 x i8] c"memory allocation failed\00", align 1
@H5_H5O_linfo_t_reg_free_list = internal global { i8, [3 x i8], i32, i32, [4 x i8], ptr, i64, ptr } { i8 0, [3 x i8] zeroinitializer, i32 0, i32 0, [4 x i8] zeroinitializer, ptr @.str.7, i64 48, ptr null }, align 8
@__func__.H5O__linfo_copy = private unnamed_addr constant [16 x i8] c"H5O__linfo_copy\00", align 1

; Function Attrs: nounwind uwtable
define internal ptr @H5O__linfo_copy(ptr noundef %0, ptr noundef %1) #0 {
  %3 = alloca ptr, align 8
  %4 = alloca ptr, align 8
  %5 = alloca ptr, align 8
  %6 = alloca ptr, align 8
  %7 = alloca ptr, align 8
  %8 = alloca i8, align 1
  store ptr %0, ptr %3, align 8, !tbaa !21
  store ptr %1, ptr %4, align 8, !tbaa !21
  call void @llvm.lifetime.start.p0(i64 8, ptr %5) #6
  %9 = load ptr, ptr %3, align 8, !tbaa !21
  store ptr %9, ptr %5, align 8, !tbaa !18
  call void @llvm.lifetime.start.p0(i64 8, ptr %6) #6
  %10 = load ptr, ptr %4, align 8, !tbaa !21
  store ptr %10, ptr %6, align 8, !tbaa !18
  call void @llvm.lifetime.start.p0(i64 8, ptr %7) #6
  store ptr null, ptr %7, align 8, !tbaa !21
  call void @llvm.lifetime.start.p0(i64 1, ptr %8) #6
  store i8 0, ptr %8, align 1, !tbaa !22
  %11 = load i8, ptr @H5O_init_g, align 1, !tbaa !22, !range !24, !noundef !25
  %12 = trunc i8 %11 to i1
  br i1 %12, label %17, label %13

13:                                               ; preds = %2
  %14 = load i8, ptr @H5_libterm_g, align 1, !tbaa !22, !range !24, !noundef !25
  %15 = trunc i8 %14 to i1
  %16 = xor i1 %15, true
  br label %17

17:                                               ; preds = %13, %2
  %18 = phi i1 [ true, %2 ], [ %16, %13 ]
  %19 = xor i1 %18, true
  %20 = xor i1 %19, true
  %21 = zext i1 %20 to i32
  %22 = sext i32 %21 to i64
  %23 = call i64 @llvm.expect.i64(i64 %22, i64 1)
  %24 = icmp ne i64 %23, 0
  br i1 %24, label %25, label %55

25:                                               ; preds = %17
  %26 = load ptr, ptr %6, align 8, !tbaa !18
  %27 = icmp ne ptr %26, null
  br i1 %27, label %50, label %28

28:                                               ; preds = %25
  %29 = call noalias ptr @H5FL_reg_malloc(ptr noundef @H5_H5O_linfo_t_reg_free_list)
  store ptr %29, ptr %6, align 8, !tbaa !18
  %30 = icmp eq ptr null, %29
  br i1 %30, label %31, label %50

31:                                               ; preds = %28
  br label %32

32:                                               ; preds = %31
  br label %33

33:                                               ; preds = %32
  br label %34

34:                                               ; preds = %33
  %35 = load i64, ptr @H5E_RESOURCE_g, align 8, !tbaa !14
  %36 = load i64, ptr @H5E_NOSPACE_g, align 8, !tbaa !14
  %37 = call i32 (ptr, ptr, i32, i64, i64, ptr, ...) @H5E_printf_stack(ptr noundef @.str.1, ptr noundef @__func__.H5O__linfo_copy, i32 noundef 255, i64 noundef %35, i64 noundef %36, ptr noundef @.str.4)
  br label %38

38:                                               ; preds = %34
  br label %39

39:                                               ; preds = %38
  store i8 1, ptr %8, align 1, !tbaa !22
  %40 = load i8, ptr %8, align 1, !tbaa !22, !range !24, !noundef !25
  %41 = trunc i8 %40 to i1
  %42 = zext i1 %41 to i8
  store i8 %42, ptr %8, align 1, !tbaa !22
  br label %43

43:                                               ; preds = %39
  br label %44

44:                                               ; preds = %43
  br label %45

45:                                               ; preds = %44
  store ptr null, ptr %7, align 8, !tbaa !21
  br label %54

46:                                               ; No predecessors!
  br label %47

47:                                               ; preds = %46
  br label %48

48:                                               ; preds = %47
  br label %49

49:                                               ; preds = %48
  br label %50

50:                                               ; preds = %49, %28, %25
  %51 = load ptr, ptr %6, align 8, !tbaa !18
  %52 = load ptr, ptr %5, align 8, !tbaa !18
  call void @llvm.memcpy.p0.p0.i64(ptr align 8 %51, ptr align 8 %52, i64 48, i1 false), !tbaa.struct !38
  %53 = load ptr, ptr %6, align 8, !tbaa !18
  store ptr %53, ptr %7, align 8, !tbaa !21
  br label %54

54:                                               ; preds = %50, %45
  br label %55

55:                                               ; preds = %54, %17
  %56 = load ptr, ptr %7, align 8, !tbaa !21
  call void @llvm.lifetime.end.p0(i64 1, ptr %8) #6
  call void @llvm.lifetime.end.p0(i64 8, ptr %7) #6
  call void @llvm.lifetime.end.p0(i64 8, ptr %6) #6
  call void @llvm.lifetime.end.p0(i64 8, ptr %5) #6
  ret ptr %56
}